target datalayout = "e-m:e-p270:32:32-p271:32:32-p272:64:64-i64:64-i128:128-f80:128-n8:16:32:64-S128"
target triple = "x86_64-pc-linux-gnu"

%struct.LogicalTapeSet = type { ptr, ptr, i32, i64, i64, i64, i8, ptr, i64, i64, i8 }
%struct.SharedFileSet = type { %struct.FileSet, i8, i32 }
%struct.FileSet = type { i32, i32, i32, [8 x i32] }

; Function Attrs: nounwind uwtable
define dso_local ptr @LogicalTapeSetCreate(i1 noundef zeroext %0, ptr noundef %1, i32 noundef %2) #0 {
  %4 = alloca i8, align 1
  %5 = alloca ptr, align 8
  %6 = alloca i32, align 4
  %7 = alloca ptr, align 8
  %8 = alloca [1024 x i8], align 16
  %9 = zext i1 %0 to i8
  store i8 %9, ptr %4, align 1
  store ptr %1, ptr %5, align 8
  store i32 %2, ptr %6, align 4
  call void @llvm.lifetime.start.p0(i64 8, ptr %7) #7
  %10 = call ptr @palloc(i64 noundef 88)
  store ptr %10, ptr %7, align 8
  %11 = load ptr, ptr %7, align 8
  %12 = getelementptr inbounds nuw %struct.LogicalTapeSet, ptr %11, i32 0, i32 3
  store i64 0, ptr %12, align 8
  %13 = load ptr, ptr %7, align 8
  %14 = getelementptr inbounds nuw %struct.LogicalTapeSet, ptr %13, i32 0, i32 4
  store i64 0, ptr %14, align 8
  %15 = load ptr, ptr %7, align 8
  %16 = getelementptr inbounds nuw %struct.LogicalTapeSet, ptr %15, i32 0, i32 5
  store i64 0, ptr %16, align 8
  %17 = load ptr, ptr %7, align 8
  %18 = getelementptr inbounds nuw %struct.LogicalTapeSet, ptr %17, i32 0, i32 6
  store i8 0, ptr %18, align 8
  %19 = load ptr, ptr %7, align 8
  %20 = getelementptr inbounds nuw %struct.LogicalTapeSet, ptr %19, i32 0, i32 9
  store i64 32, ptr %20, align 8
  %21 = load ptr, ptr %7, align 8
  %22 = getelementptr inbounds nuw %struct.LogicalTapeSet, ptr %21, i32 0, i32 9
  %23 = load i64, ptr %22, align 8
  %24 = mul i64 %23, 8
  %25 = call ptr @palloc(i64 noundef %24)
  %26 = load ptr, ptr %7, align 8
  %27 = getelementptr inbounds nuw %struct.LogicalTapeSet, ptr %26, i32 0, i32 7
  store ptr %25, ptr %27, align 8
  %28 = load ptr, ptr %7, align 8
  %29 = getelementptr inbounds nuw %struct.LogicalTapeSet, ptr %28, i32 0, i32 8
  store i64 0, ptr %29, align 8
  %30 = load i8, ptr %4, align 1, !range !4, !noundef !5
  %31 = trunc i8 %30 to i1
  %32 = load ptr, ptr %7, align 8
  %33 = getelementptr inbounds nuw %struct.LogicalTapeSet, ptr %32, i32 0, i32 10
  %34 = zext i1 %31 to i8
  store i8 %34, ptr %33, align 8
  %35 = load ptr, ptr %5, align 8
  %36 = load ptr, ptr %7, align 8
  %37 = getelementptr inbounds nuw %struct.LogicalTapeSet, ptr %36, i32 0, i32 1
  store ptr %35, ptr %37, align 8
  %38 = load i32, ptr %6, align 4
  %39 = load ptr, ptr %7, align 8
  %40 = getelementptr inbounds nuw %struct.LogicalTapeSet, ptr %39, i32 0, i32 2
  store i32 %38, ptr %40, align 8
  %41 = load ptr, ptr %5, align 8
  %42 = icmp ne ptr %41, null
  br i1 %42, label %43, label %49

43:                                               ; preds = %3
  %44 = load i32, ptr %6, align 4
  %45 = icmp eq i32 %44, -1
  br i1 %45, label %46, label %49

46:                                               ; preds = %43
  %47 = load ptr, ptr %7, align 8
  %48 = getelementptr inbounds nuw %struct.LogicalTapeSet, ptr %47, i32 0, i32 0
  store ptr null, ptr %48, align 8
  br label %68

49:                                               ; preds = %43, %3
  %50 = load ptr, ptr %5, align 8
  %51 = icmp ne ptr %50, null
  br i1 %51, label %52, label %63

52:                                               ; preds = %49
  call void @llvm.lifetime.start.p0(i64 1024, ptr %8) #7
  %53 = load i32, ptr %6, align 4
  %54 = trunc i32 %53 to i16
  %55 = getelementptr inbounds [1024 x i8], ptr %8, i64 0, i64 0
  %56 = call i32 @pg_itoa(i16 noundef signext %54, ptr noundef %55)
  %57 = load ptr, ptr %5, align 8
  %58 = getelementptr inbounds nuw %struct.SharedFileSet, ptr %57, i32 0, i32 0
  %59 = getelementptr inbounds [1024 x i8], ptr %8, i64 0, i64 0
  %60 = call ptr @BufFileCreateFileSet(ptr noundef %58, ptr noundef %59)
  %61 = load ptr, ptr %7, align 8
  %62 = getelementptr inbounds nuw %struct.LogicalTapeSet, ptr %61, i32 0, i32 0
  store ptr %60, ptr %62, align 8
  call void @llvm.lifetime.end.p0(i64 1024, ptr %8) #7
  br label %67

63:                                               ; preds = %49
  %64 = call ptr @BufFileCreateTemp(i1 noundef zeroext false)
  %65 = load ptr, ptr %7, align 8
  %66 = getelementptr inbounds nuw %struct.LogicalTapeSet, ptr %65, i32 0, i32 0
  store ptr %64, ptr %66, align 8
  br label %67

67:                                               ; preds = %63, %52
  br label %68

68:                                               ; preds = %67, %46
  %69 = load ptr, ptr %7, align 8
  call void @llvm.lifetime.end.p0(i64 8, ptr %7) #7
  ret ptr %69
}