; Function Attrs: nounwind uwtable
define dso_local ptr @LogicalTapeSetCreate(i1 noundef zeroext %0, ptr noundef %1, i32 noundef %2) local_unnamed_addr #0 {
  %4 = alloca [1024 x i8], align 16
  %5 = zext i1 %0 to i8
  %6 = tail call ptr @palloc(i64 noundef 88) #10
  %7 = getelementptr inbounds nuw i8, ptr %6, i64 24
  %8 = getelementptr inbounds nuw i8, ptr %6, i64 72
  tail call void @llvm.memset.p0.i64(ptr noundef nonnull align 8 dereferenceable(25) %7, i8 0, i64 25, i1 false)
  store i64 32, ptr %8, align 8
  %9 = tail call ptr @palloc(i64 noundef 256) #10
  %10 = getelementptr inbounds nuw i8, ptr %6, i64 56
  store ptr %9, ptr %10, align 8
  %11 = getelementptr inbounds nuw i8, ptr %6, i64 64
  store i64 0, ptr %11, align 8
  %12 = getelementptr inbounds nuw i8, ptr %6, i64 80
  store i8 %5, ptr %12, align 8
  %13 = getelementptr inbounds nuw i8, ptr %6, i64 8
  store ptr %1, ptr %13, align 8
  %14 = getelementptr inbounds nuw i8, ptr %6, i64 16
  store i32 %2, ptr %14, align 8
  %15 = icmp ne ptr %1, null
  %16 = icmp eq i32 %2, -1
  %or.cond = and i1 %15, %16
  br i1 %or.cond, label %17, label %18

17:                                               ; preds = %3
  store ptr null, ptr %6, align 8
  br label %25

18:                                               ; preds = %3
  br i1 %15, label %19, label %23

19:                                               ; preds = %18
  call void @llvm.lifetime.start.p0(i64 1024, ptr nonnull %4) #10
  %20 = trunc i32 %2 to i16
  %21 = call i32 @pg_itoa(i16 noundef signext %20, ptr noundef nonnull %4) #10
  %22 = call ptr @BufFileCreateFileSet(ptr noundef nonnull %1, ptr noundef nonnull %4) #10
  store ptr %22, ptr %6, align 8
  call void @llvm.lifetime.end.p0(i64 1024, ptr nonnull %4) #10
  br label %25

23:                                               ; preds = %18
  %24 = tail call ptr @BufFileCreateTemp(i1 noundef zeroext false) #10
  store ptr %24, ptr %6, align 8
  br label %25

25:                                               ; preds = %19, %23, %17
  ret ptr %6
}